target datalayout = "e-m:e-p270:32:32-p271:32:32-p272:64:64-i64:64-i128:128-f80:128-n8:16:32:64-S128"
target triple = "x86_64-pc-linux-gnu"

%struct.If_Grp_t_ = type { i8, i8, [16 x i8] }

; Function Attrs: nounwind uwtable
define void @If_CluMoveGroupToMsb(ptr noundef %0, i32 noundef %1, ptr noundef %2, ptr noundef %3, ptr noundef %4) #0 {
  %6 = alloca ptr, align 8
  %7 = alloca i32, align 4
  %8 = alloca ptr, align 8
  %9 = alloca ptr, align 8
  %10 = alloca ptr, align 8
  %11 = alloca i32, align 4
  store ptr %0, ptr %6, align 8, !tbaa !51
  store i32 %1, ptr %7, align 4, !tbaa !3
  store ptr %2, ptr %8, align 8, !tbaa !21
  store ptr %3, ptr %9, align 8, !tbaa !21
  store ptr %4, ptr %10, align 8, !tbaa !106
  call void @llvm.lifetime.start.p0(i64 4, ptr %11) #11
  store i32 0, ptr %11, align 4, !tbaa !3
  br label %12

12:                                               ; preds = %41, %5
  %13 = load i32, ptr %11, align 4, !tbaa !3
  %14 = load ptr, ptr %10, align 8, !tbaa !106
  %15 = getelementptr inbounds nuw %struct.If_Grp_t_, ptr %14, i32 0, i32 0
  %16 = load i8, ptr %15, align 1, !tbaa !49
  %17 = sext i8 %16 to i32
  %18 = icmp slt i32 %13, %17
  br i1 %18, label %19, label %44

19:                                               ; preds = %12
  %20 = load ptr, ptr %6, align 8, !tbaa !51
  %21 = load i32, ptr %7, align 4, !tbaa !3
  %22 = load ptr, ptr %8, align 8, !tbaa !21
  %23 = load ptr, ptr %9, align 8, !tbaa !21
  %24 = load ptr, ptr %10, align 8, !tbaa !106
  %25 = getelementptr inbounds nuw %struct.If_Grp_t_, ptr %24, i32 0, i32 2
  %26 = load ptr, ptr %10, align 8, !tbaa !106
  %27 = getelementptr inbounds nuw %struct.If_Grp_t_, ptr %26, i32 0, i32 0
  %28 = load i8, ptr %27, align 1, !tbaa !49
  %29 = sext i8 %28 to i32
  %30 = sub nsw i32 %29, 1
  %31 = load i32, ptr %11, align 4, !tbaa !3
  %32 = sub nsw i32 %30, %31
  %33 = sext i32 %32 to i64
  %34 = getelementptr inbounds [16 x i8], ptr %25, i64 0, i64 %33
  %35 = load i8, ptr %34, align 1, !tbaa !46
  %36 = sext i8 %35 to i32
  %37 = load i32, ptr %7, align 4, !tbaa !3
  %38 = sub nsw i32 %37, 1
  %39 = load i32, ptr %11, align 4, !tbaa !3
  %40 = sub nsw i32 %38, %39
  call void @If_CluMoveVar(ptr noundef %20, i32 noundef %21, ptr noundef %22, ptr noundef %23, i32 noundef %36, i32 noundef %40)
  br label %41

41:                                               ; preds = %19
  %42 = load i32, ptr %11, align 4, !tbaa !3
  %43 = add nsw i32 %42, 1
  store i32 %43, ptr %11, align 4, !tbaa !3
  br label %12, !llvm.loop !130

44:                                               ; preds = %12
  call void @llvm.lifetime.end.p0(i64 4, ptr %11) #11
  ret void
}