; Function Attrs: nofree norecurse nosync nounwind memory(readwrite, inaccessiblemem: none) uwtable
define void @If_CluMoveGroupToMsb(ptr noundef captures(none) %0, i32 noundef %1, ptr noundef captures(none) %2, ptr noundef captures(none) %3, ptr noundef readonly captures(none) %4) local_unnamed_addr #11 {
  %6 = load i8, ptr %4, align 1, !tbaa !110
  %7 = icmp sgt i8 %6, 0
  br i1 %7, label %.lr.ph, label %._crit_edge

.lr.ph:                                           ; preds = %5
  %8 = zext nneg i8 %6 to i32
  %9 = getelementptr inbounds nuw i8, ptr %4, i64 2
  br label %10

10:                                               ; preds = %.lr.ph, %10
  %11 = phi i32 [ %8, %.lr.ph ], [ %21, %10 ]
  %.012 = phi i32 [ 0, %.lr.ph ], [ %19, %10 ]
  %12 = xor i32 %.012, -1
  %13 = add i32 %11, %12
  %14 = sext i32 %13 to i64
  %15 = getelementptr inbounds [16 x i8], ptr %9, i64 0, i64 %14
  %16 = load i8, ptr %15, align 1, !tbaa !59
  %17 = sext i8 %16 to i32
  %18 = add i32 %1, %12
  tail call void @If_CluMoveVar(ptr noundef %0, i32 noundef %1, ptr noundef %2, ptr noundef %3, i32 noundef %17, i32 noundef %18)
  %19 = add nuw nsw i32 %.012, 1
  %20 = load i8, ptr %4, align 1, !tbaa !110
  %21 = sext i8 %20 to i32
  %22 = icmp slt i32 %19, %21
  br i1 %22, label %10, label %._crit_edge, !llvm.loop !138

._crit_edge:                                      ; preds = %10, %5
  ret void
}